   1              		.cpu cortex-m0
   2              		.fpu softvfp
   3              		.eabi_attribute 20, 1
   4              		.eabi_attribute 21, 1
   5              		.eabi_attribute 23, 3
   6              		.eabi_attribute 24, 1
   7              		.eabi_attribute 25, 1
   8              		.eabi_attribute 26, 1
   9              		.eabi_attribute 30, 6
  10              		.eabi_attribute 34, 0
  11              		.eabi_attribute 18, 4
  12              		.code	16
  13              		.file	"TFC.c"
  14              		.text
  15              	.Ltext0:
  16              		.cfi_sections	.debug_frame
  17              		.section	.text.TFC_Init,"ax",%progbits
  18              		.align	2
  19              		.global	TFC_Init
  20              		.code	16
  21              		.thumb_func
  23              	TFC_Init:
  24              	.LFB0:
  25              		.file 1 "../Sources/TFC/TFC.c"
   1:../Sources/TFC/TFC.c **** #include "TFC\TFC.h"
   2:../Sources/TFC/TFC.c **** #include "constants.h"
   3:../Sources/TFC/TFC.c **** 
   4:../Sources/TFC/TFC.c **** extern int8_t cur_state;
   5:../Sources/TFC/TFC.c **** void TFC_Init()
   6:../Sources/TFC/TFC.c **** {
  26              		.loc 1 6 0
  27              		.cfi_startproc
  28 0000 80B5     		push	{r7, lr}
  29              	.LCFI0:
  30              		.cfi_def_cfa_offset 8
  31              		.cfi_offset 7, -8
  32              		.cfi_offset 14, -4
  33 0002 00AF     		add	r7, sp, #0
  34              	.LCFI1:
  35              		.cfi_def_cfa_register 7
   7:../Sources/TFC/TFC.c **** 	TFC_InitClock();
  36              		.loc 1 7 0
  37 0004 FFF7FEFF 		bl	TFC_InitClock
   8:../Sources/TFC/TFC.c **** 	TFC_InitSysTick();
  38              		.loc 1 8 0
  39 0008 FFF7FEFF 		bl	TFC_InitSysTick
   9:../Sources/TFC/TFC.c **** 	TFC_InitGPIO();
  40              		.loc 1 9 0
  41 000c FFF7FEFF 		bl	TFC_InitGPIO
  10:../Sources/TFC/TFC.c **** 	TFC_InitServos();
  42              		.loc 1 10 0
  43 0010 FFF7FEFF 		bl	TFC_InitServos
  11:../Sources/TFC/TFC.c **** 	TFC_InitMotorPWM();
  44              		.loc 1 11 0
  45 0014 FFF7FEFF 		bl	TFC_InitMotorPWM
  12:../Sources/TFC/TFC.c ****     TFC_InitADCs();
  46              		.loc 1 12 0
  47 0018 FFF7FEFF 		bl	TFC_InitADCs
  13:../Sources/TFC/TFC.c ****     TFC_InitLineScanCamera();
  48              		.loc 1 13 0
  49 001c FFF7FEFF 		bl	TFC_InitLineScanCamera
  14:../Sources/TFC/TFC.c ****     TFC_InitTerminal();
  50              		.loc 1 14 0
  51 0020 FFF7FEFF 		bl	TFC_InitTerminal
  15:../Sources/TFC/TFC.c **** 	TFC_InitUARTs();
  52              		.loc 1 15 0
  53 0024 FFF7FEFF 		bl	TFC_InitUARTs
  16:../Sources/TFC/TFC.c **** 	TFC_HBRIDGE_DISABLE;
  54              		.loc 1 16 0
  55 0028 044B     		ldr	r3, .L2
  56 002a 8022     		mov	r2, #128
  57 002c 9203     		lsl	r2, r2, #14
  58 002e 9A60     		str	r2, [r3, #8]
  17:../Sources/TFC/TFC.c **** 	TFC_SetMotorPWM(0,0);
  59              		.loc 1 17 0
  60 0030 0020     		mov	r0, #0
  61 0032 0021     		mov	r1, #0
  62 0034 FFF7FEFF 		bl	TFC_SetMotorPWM
  18:../Sources/TFC/TFC.c **** 	
  19:../Sources/TFC/TFC.c **** }
  63              		.loc 1 19 0
  64 0038 BD46     		mov	sp, r7
  65              		@ sp needed for prologue
  66 003a 80BD     		pop	{r7, pc}
  67              	.L3:
  68              		.align	2
  69              	.L2:
  70 003c 00F10F40 		.word	1074786560
  71              		.cfi_endproc
  72              	.LFE0:
  74              		.section	.text.TFC_Task,"ax",%progbits
  75              		.align	2
  76              		.global	TFC_Task
  77              		.code	16
  78              		.thumb_func
  80              	TFC_Task:
  81              	.LFB1:
  20:../Sources/TFC/TFC.c **** 
  21:../Sources/TFC/TFC.c **** void TFC_Task()
  22:../Sources/TFC/TFC.c **** {
  82              		.loc 1 22 0
  83              		.cfi_startproc
  84 0000 80B5     		push	{r7, lr}
  85              	.LCFI2:
  86              		.cfi_def_cfa_offset 8
  87              		.cfi_offset 7, -8
  88              		.cfi_offset 14, -4
  89 0002 00AF     		add	r7, sp, #0
  90              	.LCFI3:
  91              		.cfi_def_cfa_register 7
  23:../Sources/TFC/TFC.c **** 	#if defined(TERMINAL_USE_SDA_SERIAL)
  24:../Sources/TFC/TFC.c **** 		TFC_UART_Process();
  92              		.loc 1 24 0
  93 0004 FFF7FEFF 		bl	TFC_UART_Process
  25:../Sources/TFC/TFC.c **** 	#endif
  26:../Sources/TFC/TFC.c **** 	 
  27:../Sources/TFC/TFC.c ****     //TFC_ProcessTerminal();
  28:../Sources/TFC/TFC.c **** 		//Our terminal
  29:../Sources/TFC/TFC.c **** 		if(cur_state == DEBUG)
  94              		.loc 1 29 0
  95 0008 034B     		ldr	r3, .L6
  96 000a 1B78     		ldrb	r3, [r3]
  97 000c 002B     		cmp	r3, #0
  98 000e 01D1     		bne	.L4
  30:../Sources/TFC/TFC.c **** 			uart_communication(); 	
  99              		.loc 1 30 0
 100 0010 FFF7FEFF 		bl	uart_communication
 101              	.L4:
  31:../Sources/TFC/TFC.c **** }
 102              		.loc 1 31 0
 103 0014 BD46     		mov	sp, r7
 104              		@ sp needed for prologue
 105 0016 80BD     		pop	{r7, pc}
 106              	.L7:
 107              		.align	2
 108              	.L6:
 109 0018 00000000 		.word	cur_state
 110              		.cfi_endproc
 111              	.LFE1:
 113              		.text
 114              	.Letext0:
 115              		.file 2 "C:/Freescale/CW MCU v10.6/MCU/ARM_GCC_Support/ewl/EWL_C/include/cstdint"
 116              		.file 3 "C:/Users/B48861/TFC/Carcode/Project_Headers/MKL25Z4.h"