(dp0
S'SPE_I'
p1
S'0.00'
p2
sS'SPE_MIN'
p3
S'0.45'
p4
sS'SPE_MAX'
p5
S'1.2'
p6
sS'SEUIL'
p7
S'100'
p8
sS'DIR_P'
p9
S'0.52'
p10
sS'SPE_D'
p11
S'0.13'
p12
sS'DIR_I'
p13
S'0.00'
p14
sS'DIFF_P'
p15
S'0.0025'
p16
sS'DIFF_I'
p17
S'0.00'
p18
sS'DIR_D'
p19
S'0.37'
p20
sS'SPE_P'
p21
S'0.46'
p22
sS'DIFF_D'
p23
S'0.002'
p24
s.